; Function Attrs: mustprogress uwtable
define void @_ZN10open_spiel4file8RealPathERKNSt7__cxx1112basic_stringIcSt11char_traitsIcESaIcEEE(ptr dead_on_unwind noalias writable sret(%"class.std::__cxx11::basic_string") align 8 %0, ptr noundef nonnull align 8 dereferenceable(32) %1) local_unnamed_addr #3 personality ptr @__gxx_personality_v0 {
  %3 = alloca [4096 x i8], align 16
  %4 = alloca %"class.std::allocator", align 1
  %5 = alloca %"class.std::allocator", align 1
  %6 = tail call noundef ptr @_ZNKSt7__cxx1112basic_stringIcSt11char_traitsIcESaIcEE5c_strEv(ptr noundef nonnull align 8 dereferenceable(32) %1) #17
  %7 = call ptr @realpath(ptr noundef %6, ptr noundef nonnull %3) #17
  %8 = icmp eq ptr %7, null
  br i1 %8, label %9, label %15

9:                                                ; preds = %2
  call void @_ZNSaIcEC1Ev(ptr noundef nonnull align 1 dereferenceable(1) %4) #17
  %10 = invoke noundef ptr @_ZNSt7__cxx1112basic_stringIcSt11char_traitsIcESaIcEE13_M_local_dataEv(ptr noundef nonnull align 8 dereferenceable(32) %0)
          to label %.noexc unwind label %13

.noexc:                                           ; preds = %9
  invoke void @_ZNSt7__cxx1112basic_stringIcSt11char_traitsIcESaIcEE12_Alloc_hiderC1EPcRKS3_(ptr noundef nonnull align 8 dereferenceable(8) %0, ptr noundef %10, ptr noundef nonnull align 1 dereferenceable(1) %4)
          to label %.noexc4 unwind label %13

.noexc4:                                          ; preds = %.noexc
  invoke void @_ZNSt7__cxx1112basic_stringIcSt11char_traitsIcESaIcEE12_M_constructIPKcEEvT_S8_St20forward_iterator_tag(ptr noundef nonnull align 8 dereferenceable(32) %0, ptr noundef nonnull @.str.5, ptr noundef nonnull @.str.5)
          to label %_ZNSt7__cxx1112basic_stringIcSt11char_traitsIcESaIcEEC2IS3_EEPKcRKS3_.exit unwind label %11

11:                                               ; preds = %.noexc4
  %12 = landingpad { ptr, i32 }
          cleanup
  call void @_ZNSaIcED2Ev(ptr noundef nonnull align 1 dereferenceable(1) %0) #17
  br label %.body

13:                                               ; preds = %.noexc, %9
  %14 = landingpad { ptr, i32 }
          cleanup
  br label %.body

15:                                               ; preds = %2
  call void @_ZNSaIcEC1Ev(ptr noundef nonnull align 1 dereferenceable(1) %5) #17
  %16 = invoke noundef ptr @_ZNSt7__cxx1112basic_stringIcSt11char_traitsIcESaIcEE13_M_local_dataEv(ptr noundef nonnull align 8 dereferenceable(32) %0)
          to label %.noexc5 unwind label %21

.noexc5:                                          ; preds = %15
  invoke void @_ZNSt7__cxx1112basic_stringIcSt11char_traitsIcESaIcEE12_Alloc_hiderC1EPcRKS3_(ptr noundef nonnull align 8 dereferenceable(8) %0, ptr noundef %16, ptr noundef nonnull align 1 dereferenceable(1) %5)
          to label %.noexc6 unwind label %21

.noexc6:                                          ; preds = %.noexc5
  %17 = call noundef i64 @strlen(ptr noundef nonnull dereferenceable(1) %3) #17
  %18 = getelementptr inbounds i8, ptr %3, i64 %17
  invoke void @_ZNSt7__cxx1112basic_stringIcSt11char_traitsIcESaIcEE12_M_constructIPKcEEvT_S8_St20forward_iterator_tag(ptr noundef nonnull align 8 dereferenceable(32) %0, ptr noundef nonnull %3, ptr noundef nonnull %18)
          to label %_ZNSt7__cxx1112basic_stringIcSt11char_traitsIcESaIcEEC2IS3_EEPKcRKS3_.exit unwind label %19

19:                                               ; preds = %.noexc6
  %20 = landingpad { ptr, i32 }
          cleanup
  call void @_ZNSaIcED2Ev(ptr noundef nonnull align 1 dereferenceable(1) %0) #17
  br label %.body

21:                                               ; preds = %.noexc5, %15
  %22 = landingpad { ptr, i32 }
          cleanup
  br label %.body

_ZNSt7__cxx1112basic_stringIcSt11char_traitsIcESaIcEEC2IS3_EEPKcRKS3_.exit: ; preds = %.noexc6, %.noexc4
  %.sink = phi ptr [ %4, %.noexc4 ], [ %5, %.noexc6 ]
  call void @_ZNSaIcED1Ev(ptr noundef nonnull align 1 dereferenceable(1) %.sink) #17
  ret void

.body:                                            ; preds = %21, %19, %13, %11
  %.sink10 = phi ptr [ %4, %11 ], [ %4, %13 ], [ %5, %19 ], [ %5, %21 ]
  %.pn = phi { ptr, i32 } [ %12, %11 ], [ %14, %13 ], [ %20, %19 ], [ %22, %21 ]
  call void @_ZNSaIcED1Ev(ptr noundef nonnull align 1 dereferenceable(1) %.sink10) #17
  resume { ptr, i32 } %.pn
}